; Function Attrs: mustprogress uwtable
define dso_local ptr @_ZNK16cmCPackIFWCommon9GetOptionERKNSt7__cxx1112basic_stringIcSt11char_traitsIcESaIcEEE(ptr noundef nonnull readonly align 8 captures(none) dereferenceable(8) %0, ptr noundef nonnull align 8 dereferenceable(32) %1) local_unnamed_addr #4 align 2 {
  %3 = load ptr, ptr %0, align 8, !tbaa !4
  %.not = icmp eq ptr %3, null
  br i1 %.not, label %6, label %4

4:                                                ; preds = %2
  %5 = tail call ptr @_ZNK16cmCPackGenerator9GetOptionERKNSt7__cxx1112basic_stringIcSt11char_traitsIcESaIcEEE(ptr noundef nonnull align 8 dereferenceable(360) %3, ptr noundef nonnull align 8 dereferenceable(32) %1)
  br label %6

6:                                                ; preds = %2, %4
  %.sroa.0.0 = phi ptr [ %5, %4 ], [ null, %2 ]
  ret ptr %.sroa.0.0
}